target datalayout = "e-m:e-p270:32:32-p271:32:32-p272:64:64-i64:64-i128:128-f80:128-n8:16:32:64-S128"
target triple = "x86_64-pc-linux-gnu"

%struct.PyVarObject = type { %struct._object, i64 }
%struct._object = type { i64, ptr }
%struct._typeobject = type { %struct.PyVarObject, ptr, i64, i64, ptr, i64, ptr, ptr, ptr, ptr, ptr, ptr, ptr, ptr, ptr, ptr, ptr, ptr, ptr, i64, ptr, ptr, ptr, ptr, i64, ptr, ptr, ptr, ptr, ptr, ptr, ptr, ptr, ptr, i64, ptr, ptr, ptr, ptr, ptr, ptr, ptr, ptr, ptr, ptr, ptr, i32, ptr, ptr }
%struct.PyTupleObject = type { %struct.PyVarObject, [1 x ptr] }
%struct.PyListObject = type { %struct.PyVarObject, ptr, i64 }

@PyUnicode_Type = external global %struct._typeobject, align 8
@PyBytes_Type = external global %struct._typeobject, align 8
@PyTuple_Type = external global %struct._typeobject, align 8
@PyList_Type = external global %struct._typeobject, align 8

; Function Attrs: inlinehint mustprogress nounwind uwtable
define internal noundef i32 @_ZL11_Py_IS_TYPEPK7_objectPK11_typeobject(ptr noundef %0, ptr noundef %1) #9 {
  %3 = alloca ptr, align 8
  %4 = alloca ptr, align 8
  store ptr %0, ptr %3, align 8
  store ptr %1, ptr %4, align 8
  %5 = load ptr, ptr %3, align 8
  %6 = getelementptr inbounds nuw %struct._object, ptr %5, i32 0, i32 1
  %7 = load ptr, ptr %6, align 8
  %8 = load ptr, ptr %4, align 8
  %9 = icmp eq ptr %7, %8
  %10 = zext i1 %9 to i32
  ret i32 %10
}

; Function Attrs: mustprogress nounwind uwtable
define noundef ptr @_ZN8nanobind6detail7seq_getEP7_objectPmPS2_(ptr noundef %0, ptr noundef %1, ptr noundef %2) #4 personality ptr @__gxx_personality_v0 {
  %4 = alloca ptr, align 8
  %5 = alloca ptr, align 8
  %6 = alloca ptr, align 8
  %7 = alloca ptr, align 8
  %8 = alloca ptr, align 8
  %9 = alloca i64, align 8
  %10 = alloca ptr, align 8
  %11 = alloca i32, align 4
  store ptr %0, ptr %5, align 8
  store ptr %1, ptr %6, align 8
  store ptr %2, ptr %7, align 8
  call void @llvm.lifetime.start.p0(i64 8, ptr %8) #20
  store ptr null, ptr %8, align 8
  call void @llvm.lifetime.start.p0(i64 8, ptr %9) #20
  store i64 0, ptr %9, align 8
  call void @llvm.lifetime.start.p0(i64 8, ptr %10) #20
  store ptr null, ptr %10, align 8
  %12 = load ptr, ptr %5, align 8
  %13 = invoke noundef i32 @_ZL11_Py_IS_TYPEPK7_objectPK11_typeobject(ptr noundef %12, ptr noundef @PyUnicode_Type)
          to label %14 unwind label %84

14:                                               ; preds = %3
  %15 = icmp ne i32 %13, 0
  br i1 %15, label %21, label %16

16:                                               ; preds = %14
  %17 = load ptr, ptr %5, align 8
  %18 = invoke noundef i32 @_ZL11_Py_IS_TYPEPK7_objectPK11_typeobject(ptr noundef %17, ptr noundef @PyBytes_Type)
          to label %19 unwind label %84

19:                                               ; preds = %16
  %20 = icmp ne i32 %18, 0
  br i1 %20, label %21, label %24

21:                                               ; preds = %19, %14
  %22 = load ptr, ptr %6, align 8
  store i64 0, ptr %22, align 8
  %23 = load ptr, ptr %7, align 8
  store ptr null, ptr %23, align 8
  store ptr null, ptr %4, align 8
  store i32 1, ptr %11, align 4
  br label %82

24:                                               ; preds = %19
  %25 = load ptr, ptr %5, align 8
  %26 = invoke noundef i32 @_ZL11_Py_IS_TYPEPK7_objectPK11_typeobject(ptr noundef %25, ptr noundef @PyTuple_Type)
          to label %27 unwind label %84

27:                                               ; preds = %24
  %28 = icmp ne i32 %26, 0
  br i1 %28, label %29, label %40

29:                                               ; preds = %27
  %30 = load ptr, ptr %5, align 8
  %31 = getelementptr inbounds nuw %struct.PyVarObject, ptr %30, i32 0, i32 1
  %32 = load i64, ptr %31, align 8
  store i64 %32, ptr %9, align 8
  %33 = load ptr, ptr %5, align 8
  %34 = getelementptr inbounds nuw %struct.PyTupleObject, ptr %33, i32 0, i32 1
  %35 = getelementptr inbounds [1 x ptr], ptr %34, i64 0, i64 0
  store ptr %35, ptr %10, align 8
  %36 = load i64, ptr %9, align 8
  %37 = icmp eq i64 %36, 0
  br i1 %37, label %38, label %39

38:                                               ; preds = %29
  store ptr inttoptr (i64 1 to ptr), ptr %10, align 8
  br label %39

39:                                               ; preds = %38, %29
  br label %76

40:                                               ; preds = %27
  %41 = load ptr, ptr %5, align 8
  %42 = invoke noundef i32 @_ZL11_Py_IS_TYPEPK7_objectPK11_typeobject(ptr noundef %41, ptr noundef @PyList_Type)
          to label %43 unwind label %84

43:                                               ; preds = %40
  %44 = icmp ne i32 %42, 0
  br i1 %44, label %45, label %56

45:                                               ; preds = %43
  %46 = load ptr, ptr %5, align 8
  %47 = getelementptr inbounds nuw %struct.PyVarObject, ptr %46, i32 0, i32 1
  %48 = load i64, ptr %47, align 8
  store i64 %48, ptr %9, align 8
  %49 = load ptr, ptr %5, align 8
  %50 = getelementptr inbounds nuw %struct.PyListObject, ptr %49, i32 0, i32 1
  %51 = load ptr, ptr %50, align 8
  store ptr %51, ptr %10, align 8
  %52 = load i64, ptr %9, align 8
  %53 = icmp eq i64 %52, 0
  br i1 %53, label %54, label %55

54:                                               ; preds = %45
  store ptr inttoptr (i64 1 to ptr), ptr %10, align 8
  br label %55

55:                                               ; preds = %54, %45
  br label %75

56:                                               ; preds = %43
  %57 = load ptr, ptr %5, align 8
  %58 = invoke i32 @PySequence_Check(ptr noundef %57)
          to label %59 unwind label %84

59:                                               ; preds = %56
  %60 = icmp ne i32 %58, 0
  br i1 %60, label %61, label %74

61:                                               ; preds = %59
  %62 = load ptr, ptr %5, align 8
  %63 = invoke ptr @PySequence_Tuple(ptr noundef %62)
          to label %64 unwind label %84

64:                                               ; preds = %61
  store ptr %63, ptr %8, align 8
  %65 = load ptr, ptr %8, align 8
  %66 = icmp ne ptr %65, null
  br i1 %66, label %67, label %71

67:                                               ; preds = %64
  %68 = load ptr, ptr %8, align 8
  %69 = load ptr, ptr %7, align 8
  %70 = call noundef ptr @_ZN8nanobind6detail7seq_getEP7_objectPmPS2_(ptr noundef %68, ptr noundef %9, ptr noundef %69) #20
  store ptr %70, ptr %10, align 8
  br label %73

71:                                               ; preds = %64
  invoke void @PyErr_Clear()
          to label %72 unwind label %84

72:                                               ; preds = %71
  br label %73

73:                                               ; preds = %72, %67
  br label %74

74:                                               ; preds = %73, %59
  br label %75

75:                                               ; preds = %74, %55
  br label %76

76:                                               ; preds = %75, %39
  %77 = load ptr, ptr %8, align 8
  %78 = load ptr, ptr %7, align 8
  store ptr %77, ptr %78, align 8
  %79 = load i64, ptr %9, align 8
  %80 = load ptr, ptr %6, align 8
  store i64 %79, ptr %80, align 8
  %81 = load ptr, ptr %10, align 8
  store ptr %81, ptr %4, align 8
  store i32 1, ptr %11, align 4
  br label %82

82:                                               ; preds = %76, %21
  call void @llvm.lifetime.end.p0(i64 8, ptr %10) #20
  call void @llvm.lifetime.end.p0(i64 8, ptr %9) #20
  call void @llvm.lifetime.end.p0(i64 8, ptr %8) #20
  %83 = load ptr, ptr %4, align 8
  ret ptr %83

84:                                               ; preds = %71, %61, %56, %40, %24, %16, %3
  %85 = landingpad { ptr, i32 }
          catch ptr null
  %86 = extractvalue { ptr, i32 } %85, 0
  call void @__clang_call_terminate(ptr %86) #22
  unreachable
}