; Function Attrs: mustprogress nounwind uwtable
define noundef ptr @_ZN8nanobind6detail7seq_getEP7_objectPmPS2_(ptr noundef %0, ptr noundef writeonly captures(none) %1, ptr noundef writeonly captures(none) %2) local_unnamed_addr #9 personality ptr @__gxx_personality_v0 {
  %4 = alloca i64, align 8
  call void @llvm.lifetime.start.p0(i64 8, ptr nonnull %4) #27
  store i64 0, ptr %4, align 8
  %5 = getelementptr i8, ptr %0, i64 8
  %.val31 = load ptr, ptr %5, align 8
  %.not = icmp eq ptr %.val31, @PyUnicode_Type
  %.not32 = icmp eq ptr %.val31, @PyBytes_Type
  %or.cond = or i1 %.not, %.not32
  br i1 %or.cond, label %6, label %7

6:                                                ; preds = %3
  store i64 0, ptr %1, align 8
  store ptr null, ptr %2, align 8
  br label %31

7:                                                ; preds = %3
  %.not33 = icmp eq ptr %.val31, @PyTuple_Type
  br i1 %.not33, label %8, label %13

8:                                                ; preds = %7
  %9 = getelementptr inbounds nuw i8, ptr %0, i64 16
  %10 = load i64, ptr %9, align 8
  %11 = getelementptr inbounds nuw i8, ptr %0, i64 24
  %12 = icmp eq i64 %10, 0
  %spec.store.select = select i1 %12, ptr inttoptr (i64 1 to ptr), ptr %11
  br label %29

13:                                               ; preds = %7
  %.not34 = icmp eq ptr %.val31, @PyList_Type
  br i1 %.not34, label %14, label %20

14:                                               ; preds = %13
  %15 = getelementptr inbounds nuw i8, ptr %0, i64 16
  %16 = load i64, ptr %15, align 8
  %17 = getelementptr inbounds nuw i8, ptr %0, i64 24
  %18 = load ptr, ptr %17, align 8
  %19 = icmp eq i64 %16, 0
  %spec.store.select1 = select i1 %19, ptr inttoptr (i64 1 to ptr), ptr %18
  br label %29

20:                                               ; preds = %13
  %21 = invoke i32 @PySequence_Check(ptr noundef nonnull %0)
          to label %22 unwind label %32

22:                                               ; preds = %20
  %.not27 = icmp eq i32 %21, 0
  br i1 %.not27, label %29, label %23

23:                                               ; preds = %22
  %24 = invoke ptr @PySequence_Tuple(ptr noundef nonnull %0)
          to label %25 unwind label %32

25:                                               ; preds = %23
  %.not28 = icmp eq ptr %24, null
  br i1 %.not28, label %28, label %26

26:                                               ; preds = %25
  %27 = call noundef ptr @_ZN8nanobind6detail7seq_getEP7_objectPmPS2_(ptr noundef nonnull %24, ptr noundef nonnull %4, ptr noundef %2) #27
  %.pre = load i64, ptr %4, align 8
  br label %29

28:                                               ; preds = %25
  invoke void @PyErr_Clear()
          to label %29 unwind label %32

29:                                               ; preds = %14, %26, %28, %22, %8
  %30 = phi i64 [ %10, %8 ], [ %16, %14 ], [ %.pre, %26 ], [ 0, %28 ], [ 0, %22 ]
  %.021 = phi ptr [ null, %8 ], [ null, %14 ], [ %24, %26 ], [ null, %28 ], [ null, %22 ]
  %.0 = phi ptr [ %spec.store.select, %8 ], [ %spec.store.select1, %14 ], [ %27, %26 ], [ null, %28 ], [ null, %22 ]
  store ptr %.021, ptr %2, align 8
  store i64 %30, ptr %1, align 8
  br label %31

31:                                               ; preds = %29, %6
  %.022 = phi ptr [ null, %6 ], [ %.0, %29 ]
  call void @llvm.lifetime.end.p0(i64 8, ptr nonnull %4) #27
  ret ptr %.022

32:                                               ; preds = %28, %23, %20
  %33 = landingpad { ptr, i32 }
          catch ptr null
  %34 = extractvalue { ptr, i32 } %33, 0
  tail call void @__clang_call_terminate(ptr %34) #29
  unreachable
}